Certificate:
    Data:
        Version: 3 (0x2)
        Serial Number: 4096 (0x1000)
        Signature Algorithm: sha256WithRSAEncryption
        Issuer: C=CA, ST=Quebec, L=Montreal, O=ETS, OU=GTI619, CN=Groupe F/emailAddress=admin@etsmtl.ca
        Validity
            Not Before: Nov 24 19:18:53 2024 GMT
            Not After : Nov 24 19:18:53 2025 GMT
        Subject: CN=Groupe F
        Subject Public Key Info:
            Public Key Algorithm: rsaEncryption
                Public-Key: (2048 bit)
                Modulus:
                    00:d6:ac:b4:6c:29:d0:e4:89:71:1f:60:c7:8a:ed:
                    60:b4:2a:dc:87:07:15:be:ec:d0:31:f4:fe:ed:7c:
                    2c:95:13:35:b8:fc:0c:e8:f5:5f:dc:2e:8d:19:8c:
                    65:b8:d4:49:3a:e4:e7:78:74:29:ac:73:d1:a1:b2:
                    5a:03:a2:a3:5a:98:df:f0:39:1d:1c:c3:f2:2e:1a:
                    24:b5:ba:59:7d:be:ce:ab:5d:75:0c:4a:2e:4f:17:
                    d2:33:c7:d9:c6:52:d6:79:1a:00:7e:06:95:30:b0:
                    44:0c:ad:a9:8a:09:1a:04:df:7b:3d:e3:1c:d4:ca:
                    46:56:84:e2:c0:b8:5f:ea:1e:80:22:52:7b:bf:76:
                    12:4c:83:a6:f0:7c:69:98:68:a8:45:17:cd:37:f1:
                    c4:2e:23:55:5c:2e:5e:92:c5:b2:3e:23:5b:c0:b6:
                    8c:b7:57:fe:69:df:42:68:1e:2c:eb:e1:8e:06:59:
                    9e:2f:96:9b:e6:68:fc:94:cc:2c:e3:1d:22:9a:f9:
                    c4:8d:da:8b:c2:be:72:2c:f6:0c:c8:cc:89:28:a6:
                    32:b2:62:05:db:13:11:8f:1c:1c:fb:0b:d6:25:cb:
                    5e:fe:46:47:d9:bb:2d:00:03:00:17:3d:53:37:7d:
                    08:4a:32:c3:8b:18:da:97:cd:7b:4f:2d:79:32:b5:
                    a7:bf
                Exponent: 65537 (0x10001)
        X509v3 extensions:
            X509v3 Subject Key Identifier: 
                D0:4A:EC:78:A6:01:65:38:8E:13:C7:F7:67:40:3C:7A:C3:AA:AD:9A
            X509v3 Authority Key Identifier: 
                C1:19:FD:3D:08:4B:9F:BF:67:00:C1:89:B0:45:A5:99:36:AE:39:4A
    Signature Algorithm: sha256WithRSAEncryption
    Signature Value:
        46:86:da:7a:d7:5d:18:b9:9c:84:44:18:0f:60:7a:51:e6:d1:
        44:cf:fe:df:ce:d7:d4:95:de:f9:17:f6:74:7f:68:21:69:07:
        e3:8d:48:26:24:94:16:69:49:22:cc:52:cf:f9:b3:dc:b4:2d:
        9c:f8:c8:15:85:6c:e0:f3:94:05:ca:46:17:6d:95:0d:a3:3c:
        43:01:d8:86:83:6d:23:f8:e3:8c:ef:3c:32:d6:89:c4:16:fa:
        31:70:bd:37:0b:ea:5d:72:d3:7a:06:1f:ed:08:f2:09:89:64:
        c0:86:ee:d5:b7:3b:bd:9b:29:6c:0b:1e:57:7a:d7:c6:77:4f:
        d3:3b:30:07:2f:e2:53:d9:09:cb:dc:66:bb:28:40:8e:67:d4:
        0e:28:59:d7:09:a5:5e:d4:39:88:b8:b1:39:26:57:ce:d8:c0:
        8e:3e:ea:c3:f3:d4:07:d4:94:5b:ad:70:81:f8:8d:a0:8b:49:
        e9:96:ec:d1:09:11:55:4d:05:78:ea:05:5f:5b:28:6c:30:b2:
        1d:97:31:14:51:59:32:b7:9f:e7:e9:01:45:5b:b0:d1:af:d8:
        25:45:96:21:04:63:01:d3:21:b5:6a:37:c3:22:61:87:0a:7f:
        06:78:45:2c:23:0e:c6:92:40:53:3e:98:62:5d:3a:74:82:27:
        4c:a4:51:e9
-----BEGIN CERTIFICATE-----
MIIDVTCCAj2gAwIBAgICEAAwDQYJKoZIhvcNAQELBQAwgYMxCzAJBgNVBAYTAkNB
MQ8wDQYDVQQIDAZRdWViZWMxETAPBgNVBAcMCE1vbnRyZWFsMQwwCgYDVQQKDANF
VFMxDzANBgNVBAsMBkdUSTYxOTERMA8GA1UEAwwIR3JvdXBlIEYxHjAcBgkqhkiG
9w0BCQEWD2FkbWluQGV0c210bC5jYTAeFw0yNDExMjQxOTE4NTNaFw0yNTExMjQx
OTE4NTNaMBMxETAPBgNVBAMMCEdyb3VwZSBGMIIBIjANBgkqhkiG9w0BAQEFAAOC
AQ8AMIIBCgKCAQEA1qy0bCnQ5IlxH2DHiu1gtCrchwcVvuzQMfT+7XwslRM1uPwM
6PVf3C6NGYxluNRJOuTneHQprHPRobJaA6KjWpjf8DkdHMPyLhoktbpZfb7Oq111
DEouTxfSM8fZxlLWeRoAfgaVMLBEDK2pigkaBN97PeMc1MpGVoTiwLhf6h6AIlJ7
v3YSTIOm8HxpmGioRRfNN/HELiNVXC5eksWyPiNbwLaMt1f+ad9CaB4s6+GOBlme
L5ab5mj8lMws4x0imvnEjdqLwr5yLPYMyMyJKKYysmIF2xMRjxwc+wvWJcte/kZH
2bstAAMAFz1TN30ISjLDixjal817Ty15MrWnvwIDAQABo0IwQDAdBgNVHQ4EFgQU
0ErseKYBZTiOE8f3Z0A8esOqrZowHwYDVR0jBBgwFoAUwRn9PQhLn79nAMGJsEWl
mTauOUowDQYJKoZIhvcNAQELBQADggEBAEaG2nrXXRi5nIREGA9gelHm0UTP/t/O
19SV3vkX9nR/aCFpB+ONSCYklBZpSSLMUs/5s9y0LZz4yBWFbODzlAXKRhdtlQ2j
PEMB2IaDbSP444zvPDLWicQW+jFwvTcL6l1y03oGH+0I8gmJZMCG7tW3O72bKWwL
Hld618Z3T9M7MAcv4lPZCcvcZrsoQI5n1A4oWdcJpV7UOYi4sTkmV87YwI4+6sPz
1AfUlFutcIH4jaCLSemW7NEJEVVNBXjqBV9bKGwwsh2XMRRRWTK3n+fpAUVbsNGv
2CVFliEEYwHTIbVqN8MiYYcKfwZ4RSwjDsaSQFM+mGJdOnSCJ0ykUek=
-----END CERTIFICATE-----
