Certificate:
    Data:
        Version: 3 (0x2)
        Serial Number: 4097 (0x1001)
        Signature Algorithm: sha256WithRSAEncryption
        Issuer: C=CA, ST=Quebec, L=Montreal, O=ETS, OU=GTI619, CN=Groupe F/emailAddress=admin@etsmtl.ca
        Validity
            Not Before: Nov 24 19:26:24 2024 GMT
            Not After : Nov 24 19:26:24 2025 GMT
        Subject: CN=Groupe F
        Subject Public Key Info:
            Public Key Algorithm: rsaEncryption
                Public-Key: (2048 bit)
                Modulus:
                    00:d6:ac:b4:6c:29:d0:e4:89:71:1f:60:c7:8a:ed:
                    60:b4:2a:dc:87:07:15:be:ec:d0:31:f4:fe:ed:7c:
                    2c:95:13:35:b8:fc:0c:e8:f5:5f:dc:2e:8d:19:8c:
                    65:b8:d4:49:3a:e4:e7:78:74:29:ac:73:d1:a1:b2:
                    5a:03:a2:a3:5a:98:df:f0:39:1d:1c:c3:f2:2e:1a:
                    24:b5:ba:59:7d:be:ce:ab:5d:75:0c:4a:2e:4f:17:
                    d2:33:c7:d9:c6:52:d6:79:1a:00:7e:06:95:30:b0:
                    44:0c:ad:a9:8a:09:1a:04:df:7b:3d:e3:1c:d4:ca:
                    46:56:84:e2:c0:b8:5f:ea:1e:80:22:52:7b:bf:76:
                    12:4c:83:a6:f0:7c:69:98:68:a8:45:17:cd:37:f1:
                    c4:2e:23:55:5c:2e:5e:92:c5:b2:3e:23:5b:c0:b6:
                    8c:b7:57:fe:69:df:42:68:1e:2c:eb:e1:8e:06:59:
                    9e:2f:96:9b:e6:68:fc:94:cc:2c:e3:1d:22:9a:f9:
                    c4:8d:da:8b:c2:be:72:2c:f6:0c:c8:cc:89:28:a6:
                    32:b2:62:05:db:13:11:8f:1c:1c:fb:0b:d6:25:cb:
                    5e:fe:46:47:d9:bb:2d:00:03:00:17:3d:53:37:7d:
                    08:4a:32:c3:8b:18:da:97:cd:7b:4f:2d:79:32:b5:
                    a7:bf
                Exponent: 65537 (0x10001)
        X509v3 extensions:
            X509v3 Subject Key Identifier: 
                D0:4A:EC:78:A6:01:65:38:8E:13:C7:F7:67:40:3C:7A:C3:AA:AD:9A
            X509v3 Authority Key Identifier: 
                C1:19:FD:3D:08:4B:9F:BF:67:00:C1:89:B0:45:A5:99:36:AE:39:4A
    Signature Algorithm: sha256WithRSAEncryption
    Signature Value:
        92:7d:b7:62:e5:e7:d7:96:38:06:63:db:6f:38:a3:ae:52:fa:
        c0:9b:6d:33:bd:99:c9:fd:d3:1c:f4:4e:3c:7d:ba:b6:88:6c:
        15:f9:2d:0e:76:fb:16:1a:06:34:b7:cc:23:c5:f5:3f:04:4d:
        e6:89:12:c3:3d:87:78:14:dd:71:22:69:24:45:dc:00:ce:4e:
        fd:a0:7d:a5:ab:01:7c:2f:ce:b7:61:a3:c7:c9:48:e0:a0:4a:
        d7:cf:a1:ff:b9:68:c3:56:7b:e9:23:4b:de:84:94:35:7d:59:
        37:93:c2:7d:ea:90:19:16:34:ce:08:d2:ea:ba:03:45:90:84:
        bf:cf:ec:19:df:7e:94:57:2d:94:f8:49:54:0c:40:a8:31:6d:
        68:1f:af:08:a8:5f:a8:0e:9c:11:b3:c5:76:39:12:3c:22:b2:
        a6:0e:62:41:0c:62:e9:82:e5:63:a2:76:de:cb:56:b1:5e:06:
        b1:2f:cc:a2:07:10:33:39:61:bf:9b:e6:43:b1:85:27:1c:d2:
        7d:5c:bc:2b:ac:3c:81:ca:d5:82:b5:6f:28:11:24:45:c6:5e:
        d8:0e:48:e6:2b:e1:47:5a:de:5d:57:02:01:44:85:fa:6e:6e:
        9e:73:10:ab:85:68:53:e1:00:89:08:aa:a8:d3:88:91:c7:4b:
        e7:4f:ef:74
-----BEGIN CERTIFICATE-----
MIIDVTCCAj2gAwIBAgICEAEwDQYJKoZIhvcNAQELBQAwgYMxCzAJBgNVBAYTAkNB
MQ8wDQYDVQQIDAZRdWViZWMxETAPBgNVBAcMCE1vbnRyZWFsMQwwCgYDVQQKDANF
VFMxDzANBgNVBAsMBkdUSTYxOTERMA8GA1UEAwwIR3JvdXBlIEYxHjAcBgkqhkiG
9w0BCQEWD2FkbWluQGV0c210bC5jYTAeFw0yNDExMjQxOTI2MjRaFw0yNTExMjQx
OTI2MjRaMBMxETAPBgNVBAMMCEdyb3VwZSBGMIIBIjANBgkqhkiG9w0BAQEFAAOC
AQ8AMIIBCgKCAQEA1qy0bCnQ5IlxH2DHiu1gtCrchwcVvuzQMfT+7XwslRM1uPwM
6PVf3C6NGYxluNRJOuTneHQprHPRobJaA6KjWpjf8DkdHMPyLhoktbpZfb7Oq111
DEouTxfSM8fZxlLWeRoAfgaVMLBEDK2pigkaBN97PeMc1MpGVoTiwLhf6h6AIlJ7
v3YSTIOm8HxpmGioRRfNN/HELiNVXC5eksWyPiNbwLaMt1f+ad9CaB4s6+GOBlme
L5ab5mj8lMws4x0imvnEjdqLwr5yLPYMyMyJKKYysmIF2xMRjxwc+wvWJcte/kZH
2bstAAMAFz1TN30ISjLDixjal817Ty15MrWnvwIDAQABo0IwQDAdBgNVHQ4EFgQU
0ErseKYBZTiOE8f3Z0A8esOqrZowHwYDVR0jBBgwFoAUwRn9PQhLn79nAMGJsEWl
mTauOUowDQYJKoZIhvcNAQELBQADggEBAJJ9t2Ll59eWOAZj2284o65S+sCbbTO9
mcn90xz0Tjx9uraIbBX5LQ52+xYaBjS3zCPF9T8ETeaJEsM9h3gU3XEiaSRF3ADO
Tv2gfaWrAXwvzrdho8fJSOCgStfPof+5aMNWe+kjS96ElDV9WTeTwn3qkBkWNM4I
0uq6A0WQhL/P7BnffpRXLZT4SVQMQKgxbWgfrwioX6gOnBGzxXY5EjwisqYOYkEM
YumC5WOidt7LVrFeBrEvzKIHEDM5Yb+b5kOxhScc0n1cvCusPIHK1YK1bygRJEXG
XtgOSOYr4Uda3l1XAgFEhfpubp5zEKuFaFPhAIkIqqjTiJHHS+dP73Q=
-----END CERTIFICATE-----
